target datalayout = "e-m:e-p270:32:32-p271:32:32-p272:64:64-i64:64-i128:128-f80:128-n8:16:32:64-S128"
target triple = "x86_64-pc-linux-gnu"

%struct.rb_data_type_struct = type { ptr, %struct.anon, ptr, ptr, i64 }
%struct.anon = type { ptr, ptr, ptr, ptr, [1 x ptr] }
%struct.RTypedData = type { %struct.RBasic, ptr, i64, ptr }
%struct.RBasic = type { i64, i64 }

@ossl_bn_type = internal constant %struct.rb_data_type_struct { ptr @.str.62, %struct.anon { ptr null, ptr @ossl_bn_free, ptr null, ptr null, [1 x ptr] zeroinitializer }, ptr null, ptr null, i64 289 }, align 8
@eBNError = internal global i64 0, align 8
@rb_eRuntimeError = external global i64, align 8
@.str = private unnamed_addr constant [23 x i8] c"BN wasn't initialized!\00", align 1
@ossl_bn_ctx_key = internal global ptr null, align 8
@.str.2 = private unnamed_addr constant [19 x i8] c"Cannot init BN_CTX\00", align 1

; Function Attrs: nounwind sspstrong uwtable
define ptr @ossl_bn_ctx_get() #0 {
  %1 = alloca ptr, align 8
  call void @llvm.lifetime.start.p0(i64 8, ptr %1) #20
  %2 = load ptr, ptr @ossl_bn_ctx_key, align 8, !tbaa !19
  %3 = call ptr @rb_ractor_local_storage_ptr(ptr noundef %2)
  store ptr %3, ptr %1, align 8, !tbaa !21
  %4 = load ptr, ptr %1, align 8, !tbaa !21
  %5 = icmp ne ptr %4, null
  br i1 %5, label %14, label %6

6:                                                ; preds = %0
  %7 = call ptr @BN_CTX_new()
  store ptr %7, ptr %1, align 8, !tbaa !21
  %8 = icmp ne ptr %7, null
  br i1 %8, label %11, label %9

9:                                                ; preds = %6
  %10 = load i64, ptr @rb_eRuntimeError, align 8, !tbaa !11
  call void (i64, ptr, ...) @ossl_raise(i64 noundef %10, ptr noundef @.str.2) #21
  unreachable

11:                                               ; preds = %6
  %12 = load ptr, ptr @ossl_bn_ctx_key, align 8, !tbaa !19
  %13 = load ptr, ptr %1, align 8, !tbaa !21
  call void @rb_ractor_local_storage_ptr_set(ptr noundef %12, ptr noundef %13)
  br label %14

14:                                               ; preds = %11, %0
  %15 = load ptr, ptr %1, align 8, !tbaa !21
  call void @llvm.lifetime.end.p0(i64 8, ptr %1) #20
  ret ptr %15
}

; Function Attrs: nounwind sspstrong uwtable
define internal i64 @ossl_bn_mod_sqrt(i64 noundef %0, i64 noundef %1) #0 {
  %3 = alloca i64, align 8
  %4 = alloca i64, align 8
  %5 = alloca ptr, align 8
  %6 = alloca ptr, align 8
  %7 = alloca ptr, align 8
  %8 = alloca i64, align 8
  store i64 %0, ptr %3, align 8, !tbaa !11
  store i64 %1, ptr %4, align 8, !tbaa !11
  call void @llvm.lifetime.start.p0(i64 8, ptr %5) #20
  call void @llvm.lifetime.start.p0(i64 8, ptr %6) #20
  %9 = call ptr @ossl_bn_value_ptr(ptr noundef %4)
  store ptr %9, ptr %6, align 8, !tbaa !6
  call void @llvm.lifetime.start.p0(i64 8, ptr %7) #20
  call void @llvm.lifetime.start.p0(i64 8, ptr %8) #20
  br label %10

10:                                               ; preds = %2
  %11 = load i64, ptr %3, align 8, !tbaa !11
  %12 = call ptr @rb_check_typeddata(i64 noundef %11, ptr noundef @ossl_bn_type)
  store ptr %12, ptr %5, align 8, !tbaa !6
  %13 = load ptr, ptr %5, align 8, !tbaa !6
  %14 = icmp ne ptr %13, null
  br i1 %14, label %17, label %15

15:                                               ; preds = %10
  %16 = load i64, ptr @rb_eRuntimeError, align 8, !tbaa !11
  call void (i64, ptr, ...) @ossl_raise(i64 noundef %16, ptr noundef @.str) #21
  unreachable

17:                                               ; preds = %10
  br label %18

18:                                               ; preds = %17
  br label %19

19:                                               ; preds = %18
  %20 = load i64, ptr %3, align 8, !tbaa !11
  %21 = call i64 @rb_obj_class(i64 noundef %20)
  %22 = call i64 @rb_data_typed_object_wrap(i64 noundef %21, ptr noundef null, ptr noundef @ossl_bn_type)
  store i64 %22, ptr %8, align 8, !tbaa !11
  %23 = load ptr, ptr %5, align 8, !tbaa !6
  %24 = load ptr, ptr %6, align 8, !tbaa !6
  %25 = call ptr @ossl_bn_ctx_get()
  %26 = call ptr @BN_mod_sqrt(ptr noundef null, ptr noundef %23, ptr noundef %24, ptr noundef %25)
  store ptr %26, ptr %7, align 8, !tbaa !6
  %27 = icmp ne ptr %26, null
  br i1 %27, label %30, label %28

28:                                               ; preds = %19
  %29 = load i64, ptr @eBNError, align 8, !tbaa !11
  call void (i64, ptr, ...) @ossl_raise(i64 noundef %29, ptr noundef null) #21
  unreachable

30:                                               ; preds = %19
  br label %31

31:                                               ; preds = %30
  %32 = load ptr, ptr %7, align 8, !tbaa !6
  %33 = icmp ne ptr %32, null
  br i1 %33, label %36, label %34

34:                                               ; preds = %31
  %35 = load i64, ptr @rb_eRuntimeError, align 8, !tbaa !11
  call void (i64, ptr, ...) @ossl_raise(i64 noundef %35, ptr noundef @.str) #21
  unreachable

36:                                               ; preds = %31
  %37 = load ptr, ptr %7, align 8, !tbaa !6
  %38 = load i64, ptr %8, align 8, !tbaa !11
  %39 = inttoptr i64 %38 to ptr
  %40 = getelementptr inbounds nuw %struct.RTypedData, ptr %39, i32 0, i32 3
  store ptr %37, ptr %40, align 8, !tbaa !13
  br label %41

41:                                               ; preds = %36
  br label %42

42:                                               ; preds = %41
  %43 = load i64, ptr %8, align 8, !tbaa !11
  call void @llvm.lifetime.end.p0(i64 8, ptr %8) #20
  call void @llvm.lifetime.end.p0(i64 8, ptr %7) #20
  call void @llvm.lifetime.end.p0(i64 8, ptr %6) #20
  call void @llvm.lifetime.end.p0(i64 8, ptr %5) #20
  ret i64 %43
}